(dp0
Vengine
p1
S'pdflatex'
p2
sVpackages
p3
c__builtin__
set
p4
((lp5
Vhyperref
p6
aVtikz
p7
aVlibertine
p8
aVwallpaper
p9
aVfancyvrb
p10
aVmicrotype
p11
aVfontenc
p12
aVadjustbox
p13
aVinputenc
p14
atp15
Rp16
sVfiles_with_guttermarks
p17
g4
((lp18
S'citations.tex'
p19
atp20
Rp21
sVsynctex
p22
I01
s.