(dp0
Vengine
p1
S'pdflatex'
p2
sVpackages
p3
c__builtin__
set
p4
((lp5
Vhyperref
p6
aVtikz
p7
aVlibertine
p8
aVwallpaper
p9
aVfancyvrb
p10
aVmicrotype
p11
aVfontenc
p12
aVadjustbox
p13
aVinputenc
p14
atp15
Rp16
sVfiles_with_guttermarks
p17
g4
((lp18
S'Python-Early-Objects.tex'
p19
aV/Users/chrys/Dropbox/coding/Python/Python Early Objects/./Python-Early-Objects.tex
p20
aV/Users/chrys/Dropbox/coding/Python/Python Early Objects/structure.tex
p21
atp22
Rp23
sVsynctex
p24
I01
s.